target datalayout = "e-m:e-p270:32:32-p271:32:32-p272:64:64-i64:64-i128:128-f80:128-n8:16:32:64-S128"
target triple = "x86_64-pc-linux-gnu"

@hf_ua3g_dwl_special_char_character_number = internal global i32 0, align 4
@hf_ua3g_dwl_special_char_byte = internal global i32 0, align 4

; Function Attrs: null_pointer_is_valid sspstrong uwtable
define internal void @decode_dwl_special_char(ptr noundef %0, ptr noundef %1, ptr noundef %2, i32 noundef %3, i32 noundef %4) #0 {
  %6 = alloca ptr, align 8
  %7 = alloca ptr, align 8
  %8 = alloca ptr, align 8
  %9 = alloca i32, align 4
  %10 = alloca i32, align 4
  %11 = alloca i32, align 4
  store ptr %0, ptr %6, align 8
  store ptr %1, ptr %7, align 8
  store ptr %2, ptr %8, align 8
  store i32 %3, ptr %9, align 4
  store i32 %4, ptr %10, align 4
  call void @llvm.lifetime.start.p0(i64 4, ptr %11) #8
  br label %12

12:                                               ; preds = %41, %5
  %13 = load i32, ptr %10, align 4
  %14 = icmp ugt i32 %13, 0
  br i1 %14, label %15, label %42

15:                                               ; preds = %12
  %16 = load ptr, ptr %6, align 8
  %17 = load i32, ptr @hf_ua3g_dwl_special_char_character_number, align 4
  %18 = load ptr, ptr %7, align 8
  %19 = load i32, ptr %9, align 4
  %20 = call ptr @proto_tree_add_item(ptr noundef %16, i32 noundef %17, ptr noundef %18, i32 noundef %19, i32 noundef 1, i32 noundef 0)
  %21 = load i32, ptr %9, align 4
  %22 = add i32 %21, 1
  store i32 %22, ptr %9, align 4
  %23 = load i32, ptr %10, align 4
  %24 = add i32 %23, -1
  store i32 %24, ptr %10, align 4
  store i32 1, ptr %11, align 4
  br label %25

25:                                               ; preds = %38, %15
  %26 = load i32, ptr %11, align 4
  %27 = icmp sle i32 %26, 8
  br i1 %27, label %28, label %41

28:                                               ; preds = %25
  %29 = load ptr, ptr %6, align 8
  %30 = load i32, ptr @hf_ua3g_dwl_special_char_byte, align 4
  %31 = load ptr, ptr %7, align 8
  %32 = load i32, ptr %9, align 4
  %33 = call ptr @proto_tree_add_item(ptr noundef %29, i32 noundef %30, ptr noundef %31, i32 noundef %32, i32 noundef 1, i32 noundef 0)
  %34 = load i32, ptr %9, align 4
  %35 = add i32 %34, 1
  store i32 %35, ptr %9, align 4
  %36 = load i32, ptr %10, align 4
  %37 = add i32 %36, -1
  store i32 %37, ptr %10, align 4
  br label %38

38:                                               ; preds = %28
  %39 = load i32, ptr %11, align 4
  %40 = add i32 %39, 1
  store i32 %40, ptr %11, align 4
  br label %25, !llvm.loop !24

41:                                               ; preds = %25
  br label %12, !llvm.loop !25

42:                                               ; preds = %12
  call void @llvm.lifetime.end.p0(i64 4, ptr %11) #8
  ret void
}