; Function Attrs: null_pointer_is_valid sspstrong uwtable
define internal fastcc void @decode_dwl_special_char(ptr noundef %0, ptr noundef %1, i32 noundef range(i32 -1, 65535) %2) unnamed_addr #0 {
  %.not6 = icmp eq i32 %2, 0
  br i1 %.not6, label %._crit_edge, label %.lr.ph

.loopexit:                                        ; preds = %8
  %4 = add i32 %.0128, -9
  %.not = icmp eq i32 %4, 0
  br i1 %.not, label %._crit_edge, label %.lr.ph, !llvm.loop !25

.lr.ph:                                           ; preds = %3, %.loopexit
  %.0128 = phi i32 [ %4, %.loopexit ], [ %2, %3 ]
  %.0137 = phi i32 [ %7, %.loopexit ], [ 3, %3 ]
  %5 = load i32, ptr @hf_ua3g_dwl_special_char_character_number, align 4
  %6 = tail call ptr @proto_tree_add_item(ptr noundef %0, i32 noundef %5, ptr noundef %1, i32 noundef %.0137, i32 noundef 1, i32 noundef 0)
  %.1142 = add i32 %.0137, 1
  %7 = add i32 %.0137, 9
  br label %8

8:                                                ; preds = %.lr.ph, %8
  %.1145 = phi i32 [ %.1142, %.lr.ph ], [ %.114, %8 ]
  %9 = load i32, ptr @hf_ua3g_dwl_special_char_byte, align 4
  %10 = tail call ptr @proto_tree_add_item(ptr noundef %0, i32 noundef %9, ptr noundef %1, i32 noundef %.1145, i32 noundef 1, i32 noundef 0)
  %.114 = add i32 %.1145, 1
  %exitcond.not = icmp eq i32 %.114, %7
  br i1 %exitcond.not, label %.loopexit, label %8, !llvm.loop !26

._crit_edge:                                      ; preds = %.loopexit, %3
  ret void
}